; Function Attrs: nofree norecurse nosync nounwind memory(read, inaccessiblemem: none) uwtable
define hidden ptr @X11_FindWindow(ptr noundef readonly captures(none) %0, i64 noundef %1) local_unnamed_addr #4 {
  %3 = getelementptr inbounds nuw i8, ptr %0, i64 1656
  %4 = load ptr, ptr %3, align 8
  %.not = icmp eq ptr %4, null
  br i1 %.not, label %.loopexit, label %5

5:                                                ; preds = %2
  %6 = getelementptr inbounds nuw i8, ptr %4, i64 48
  %7 = load ptr, ptr %6, align 8
  %.not16 = icmp eq ptr %7, null
  br i1 %.not16, label %.loopexit, label %.preheader

.preheader:                                       ; preds = %5
  %8 = getelementptr inbounds nuw i8, ptr %4, i64 40
  %9 = load i32, ptr %8, align 8
  %10 = icmp sgt i32 %9, 0
  br i1 %10, label %.lr.ph.preheader, label %.loopexit

.lr.ph.preheader:                                 ; preds = %.preheader
  %wide.trip.count = zext nneg i32 %9 to i64
  br label %.lr.ph

.lr.ph:                                           ; preds = %.lr.ph.preheader, %17
  %indvars.iv = phi i64 [ 0, %.lr.ph.preheader ], [ %indvars.iv.next, %17 ]
  %11 = getelementptr inbounds nuw ptr, ptr %7, i64 %indvars.iv
  %12 = load ptr, ptr %11, align 8
  %.not17 = icmp eq ptr %12, null
  br i1 %.not17, label %17, label %13

13:                                               ; preds = %.lr.ph
  %14 = getelementptr inbounds nuw i8, ptr %12, i64 8
  %15 = load i64, ptr %14, align 8
  %16 = icmp eq i64 %15, %1
  br i1 %16, label %.loopexit, label %17

17:                                               ; preds = %.lr.ph, %13
  %indvars.iv.next = add nuw nsw i64 %indvars.iv, 1
  %exitcond.not = icmp eq i64 %indvars.iv.next, %wide.trip.count
  br i1 %exitcond.not, label %.loopexit, label %.lr.ph, !llvm.loop !7

.loopexit:                                        ; preds = %13, %17, %.preheader, %2, %5
  %.013 = phi ptr [ null, %5 ], [ null, %2 ], [ null, %.preheader ], [ %12, %13 ], [ null, %17 ]
  ret ptr %.013
}